; Function Attrs: mustprogress uwtable
define void @_ZN3gmx24AbstractAverageHistogram20normalizeProbabilityEv(ptr noundef nonnull align 8 dereferenceable(120) %0) local_unnamed_addr #3 align 2 {
  %2 = tail call noundef i32 @_ZNK3gmx20AbstractAnalysisData11columnCountEv(ptr noundef nonnull align 8 dereferenceable(16) %0)
  %3 = icmp sgt i32 %2, 0
  br i1 %3, label %.preheader.lr.ph, label %._crit_edge17

.preheader.lr.ph:                                 ; preds = %1
  %4 = getelementptr inbounds i8, ptr %0, i64 16
  %5 = getelementptr inbounds i8, ptr %0, i64 40
  %6 = getelementptr inbounds i8, ptr %0, i64 88
  br label %.preheader

.preheader:                                       ; preds = %.preheader.lr.ph, %_ZN3gmx24AbstractAverageHistogram11scaleSingleEif.exit
  %.01116 = phi i32 [ 0, %.preheader.lr.ph ], [ %48, %_ZN3gmx24AbstractAverageHistogram11scaleSingleEif.exit ]
  %7 = load i32, ptr %4, align 8
  %8 = icmp sgt i32 %7, 0
  br i1 %8, label %.lr.ph, label %_ZN3gmx24AbstractAverageHistogram11scaleSingleEif.exit

.lr.ph:                                           ; preds = %.preheader, %.lr.ph
  %.014 = phi i32 [ %18, %.lr.ph ], [ 0, %.preheader ]
  %.01013 = phi double [ %17, %.lr.ph ], [ 0.000000e+00, %.preheader ]
  %9 = tail call noundef i32 @_ZNK3gmx20AbstractAnalysisData11columnCountEv(ptr noundef nonnull align 8 dereferenceable(16) %0)
  %10 = mul nsw i32 %9, %.014
  %11 = add nsw i32 %10, %.01116
  %12 = sext i32 %11 to i64
  %13 = load ptr, ptr %5, align 8
  %14 = getelementptr inbounds %"class.gmx::AnalysisDataValue", ptr %13, i64 %12
  %15 = load float, ptr %14, align 4
  %16 = fpext float %15 to double
  %17 = fadd double %.01013, %16
  %18 = add nuw nsw i32 %.014, 1
  %19 = load i32, ptr %4, align 8
  %20 = icmp slt i32 %18, %19
  br i1 %20, label %.lr.ph, label %._crit_edge, !llvm.loop !27

._crit_edge:                                      ; preds = %.lr.ph
  %21 = fcmp ogt double %17, 0.000000e+00
  br i1 %21, label %22, label %_ZN3gmx24AbstractAverageHistogram11scaleSingleEif.exit

22:                                               ; preds = %._crit_edge
  %23 = load float, ptr %6, align 8
  %24 = fpext float %23 to double
  %25 = fmul double %17, %24
  %26 = fdiv double 1.000000e+00, %25
  %27 = fptrunc double %26 to float
  %28 = icmp sgt i32 %19, 0
  br i1 %28, label %.lr.ph.i, label %_ZN3gmx24AbstractAverageHistogram11scaleSingleEif.exit

.lr.ph.i:                                         ; preds = %22, %.lr.ph.i
  %.08.i = phi i32 [ %45, %.lr.ph.i ], [ 0, %22 ]
  %29 = tail call noundef i32 @_ZNK3gmx20AbstractAnalysisData11columnCountEv(ptr noundef nonnull align 8 dereferenceable(16) %0)
  %30 = mul nsw i32 %29, %.08.i
  %31 = add nsw i32 %30, %.01116
  %32 = sext i32 %31 to i64
  %33 = load ptr, ptr %5, align 8
  %34 = getelementptr inbounds %"class.gmx::AnalysisDataValue", ptr %33, i64 %32
  %35 = load float, ptr %34, align 4
  %36 = fmul float %35, %27
  store float %36, ptr %34, align 4
  %37 = tail call noundef i32 @_ZNK3gmx20AbstractAnalysisData11columnCountEv(ptr noundef nonnull align 8 dereferenceable(16) %0)
  %38 = mul nsw i32 %37, %.08.i
  %39 = add nsw i32 %38, %.01116
  %40 = sext i32 %39 to i64
  %41 = load ptr, ptr %5, align 8
  %42 = getelementptr inbounds %"class.gmx::AnalysisDataValue", ptr %41, i64 %40, i32 1
  %43 = load float, ptr %42, align 4
  %44 = fmul float %43, %27
  store float %44, ptr %42, align 4
  %45 = add nuw nsw i32 %.08.i, 1
  %46 = load i32, ptr %4, align 8
  %47 = icmp slt i32 %45, %46
  br i1 %47, label %.lr.ph.i, label %_ZN3gmx24AbstractAverageHistogram11scaleSingleEif.exit, !llvm.loop !28

_ZN3gmx24AbstractAverageHistogram11scaleSingleEif.exit: ; preds = %.lr.ph.i, %.preheader, %22, %._crit_edge
  %48 = add nuw nsw i32 %.01116, 1
  %49 = tail call noundef i32 @_ZNK3gmx20AbstractAnalysisData11columnCountEv(ptr noundef nonnull align 8 dereferenceable(16) %0)
  %50 = icmp slt i32 %48, %49
  br i1 %50, label %.preheader, label %._crit_edge17, !llvm.loop !29

._crit_edge17:                                    ; preds = %_ZN3gmx24AbstractAverageHistogram11scaleSingleEif.exit, %1
  ret void
}